; Function Attrs: mustprogress nounwind uwtable
define dso_local void @_ZN4llvm16LTOCodeGenerator24parseCodeGenDebugOptionsEv(ptr noundef nonnull readonly align 8 captures(none) dereferenceable(1680) %0) local_unnamed_addr #1 align 2 {
  %2 = getelementptr inbounds nuw i8, ptr %0, i64 112
  %3 = load ptr, ptr %2, align 8
  %4 = getelementptr inbounds nuw i8, ptr %0, i64 120
  %5 = load ptr, ptr %4, align 8
  %6 = icmp eq ptr %3, %5
  br i1 %6, label %8, label %7

7:                                                ; preds = %1
  tail call void @_ZN4llvm23parseCommandLineOptionsERSt6vectorINSt7__cxx1112basic_stringIcSt11char_traitsIcESaIcEEESaIS6_EE(ptr noundef nonnull align 8 dereferenceable(24) %2)
  br label %8

8:                                                ; preds = %7, %1
  ret void
}